target datalayout = "e-m:e-p270:32:32-p271:32:32-p272:64:64-i64:64-i128:128-f80:128-n8:16:32:64-S128"
target triple = "x86_64-unknown-linux-gnu"

@.str = private unnamed_addr constant [5 x i8] c"PC: \00", align 1
@.str.1 = private unnamed_addr constant [5 x i8] c"    \00", align 1
@.str.2 = private unnamed_addr constant [39 x i8] c"    @ ... and at least %d more frames\0A\00", align 1
@.str.3 = private unnamed_addr constant [10 x i8] c"(unknown)\00", align 1
@.str.4 = private unnamed_addr constant [24 x i8] c"%s@ %*p  (unknown)  %s\0A\00", align 1
@.str.5 = private unnamed_addr constant [18 x i8] c"%s@ %*p  %9d  %s\0A\00", align 1
@.str.6 = private unnamed_addr constant [20 x i8] c"%s@ %*p  (unknown)\0A\00", align 1
@.str.7 = private unnamed_addr constant [14 x i8] c"%s@ %*p  %9d\0A\00", align 1

; Function Attrs: mustprogress uwtable
define internal void @_ZN4absl18debugging_internal12_GLOBAL__N_118DumpPCAndFrameSizeEPFvPKcPvES4_S4_iS3_(ptr noundef %writer, ptr noundef %writer_arg, ptr noundef %pc, i32 noundef %framesize, ptr noundef %prefix) #1 {
entry:
  %writer.addr = alloca ptr, align 8
  %writer_arg.addr = alloca ptr, align 8
  %pc.addr = alloca ptr, align 8
  %framesize.addr = alloca i32, align 4
  %prefix.addr = alloca ptr, align 8
  %buf = alloca [100 x i8], align 16
  store ptr %writer, ptr %writer.addr, align 8
  store ptr %writer_arg, ptr %writer_arg.addr, align 8
  store ptr %pc, ptr %pc.addr, align 8
  store i32 %framesize, ptr %framesize.addr, align 4
  store ptr %prefix, ptr %prefix.addr, align 8
  %0 = load i32, ptr %framesize.addr, align 4
  %cmp = icmp sle i32 %0, 0
  br i1 %cmp, label %if.then, label %if.else

if.then:                                          ; preds = %entry
  %arraydecay = getelementptr inbounds [100 x i8], ptr %buf, i64 0, i64 0
  %1 = load ptr, ptr %prefix.addr, align 8
  %2 = load ptr, ptr %pc.addr, align 8
  %call = call i32 (ptr, i64, ptr, ...) @snprintf(ptr noundef %arraydecay, i64 noundef 100, ptr noundef @.str.6, ptr noundef %1, i32 noundef 18, ptr noundef %2) #4
  br label %if.end

if.else:                                          ; preds = %entry
  %arraydecay1 = getelementptr inbounds [100 x i8], ptr %buf, i64 0, i64 0
  %3 = load ptr, ptr %prefix.addr, align 8
  %4 = load ptr, ptr %pc.addr, align 8
  %5 = load i32, ptr %framesize.addr, align 4
  %call2 = call i32 (ptr, i64, ptr, ...) @snprintf(ptr noundef %arraydecay1, i64 noundef 100, ptr noundef @.str.7, ptr noundef %3, i32 noundef 18, ptr noundef %4, i32 noundef %5) #4
  br label %if.end

if.end:                                           ; preds = %if.else, %if.then
  %6 = load ptr, ptr %writer.addr, align 8
  %arraydecay3 = getelementptr inbounds [100 x i8], ptr %buf, i64 0, i64 0
  %7 = load ptr, ptr %writer_arg.addr, align 8
  call void %6(ptr noundef %arraydecay3, ptr noundef %7)
  ret void
}

; Function Attrs: mustprogress uwtable
define internal void @_ZN4absl18debugging_internal12_GLOBAL__N_127DumpPCAndFrameSizeAndSymbolEPFvPKcPvES4_S4_S4_iS3_(ptr noundef %writer, ptr noundef %writer_arg, ptr noundef %pc, ptr noundef %symbolize_pc, i32 noundef %framesize, ptr noundef %prefix) #1 {
entry:
  %writer.addr = alloca ptr, align 8
  %writer_arg.addr = alloca ptr, align 8
  %pc.addr = alloca ptr, align 8
  %symbolize_pc.addr = alloca ptr, align 8
  %framesize.addr = alloca i32, align 4
  %prefix.addr = alloca ptr, align 8
  %tmp = alloca [1024 x i8], align 16
  %symbol = alloca ptr, align 8
  %buf = alloca [1024 x i8], align 16
  store ptr %writer, ptr %writer.addr, align 8
  store ptr %writer_arg, ptr %writer_arg.addr, align 8
  store ptr %pc, ptr %pc.addr, align 8
  store ptr %symbolize_pc, ptr %symbolize_pc.addr, align 8
  store i32 %framesize, ptr %framesize.addr, align 4
  store ptr %prefix, ptr %prefix.addr, align 8
  store ptr @.str.3, ptr %symbol, align 8
  %0 = load ptr, ptr %symbolize_pc.addr, align 8
  %arraydecay = getelementptr inbounds [1024 x i8], ptr %tmp, i64 0, i64 0
  %call = call noundef zeroext i1 @_ZN4absl9SymbolizeEPKvPci(ptr noundef %0, ptr noundef %arraydecay, i32 noundef 1024)
  br i1 %call, label %if.then, label %if.end

if.then:                                          ; preds = %entry
  %arraydecay1 = getelementptr inbounds [1024 x i8], ptr %tmp, i64 0, i64 0
  store ptr %arraydecay1, ptr %symbol, align 8
  br label %if.end

if.end:                                           ; preds = %if.then, %entry
  %1 = load i32, ptr %framesize.addr, align 4
  %cmp = icmp sle i32 %1, 0
  br i1 %cmp, label %if.then2, label %if.else

if.then2:                                         ; preds = %if.end
  %arraydecay3 = getelementptr inbounds [1024 x i8], ptr %buf, i64 0, i64 0
  %2 = load ptr, ptr %prefix.addr, align 8
  %3 = load ptr, ptr %pc.addr, align 8
  %4 = load ptr, ptr %symbol, align 8
  %call4 = call i32 (ptr, i64, ptr, ...) @snprintf(ptr noundef %arraydecay3, i64 noundef 1024, ptr noundef @.str.4, ptr noundef %2, i32 noundef 18, ptr noundef %3, ptr noundef %4) #4
  br label %if.end7

if.else:                                          ; preds = %if.end
  %arraydecay5 = getelementptr inbounds [1024 x i8], ptr %buf, i64 0, i64 0
  %5 = load ptr, ptr %prefix.addr, align 8
  %6 = load ptr, ptr %pc.addr, align 8
  %7 = load i32, ptr %framesize.addr, align 4
  %8 = load ptr, ptr %symbol, align 8
  %call6 = call i32 (ptr, i64, ptr, ...) @snprintf(ptr noundef %arraydecay5, i64 noundef 1024, ptr noundef @.str.5, ptr noundef %5, i32 noundef 18, ptr noundef %6, i32 noundef %7, ptr noundef %8) #4
  br label %if.end7

if.end7:                                          ; preds = %if.else, %if.then2
  %9 = load ptr, ptr %writer.addr, align 8
  %arraydecay8 = getelementptr inbounds [1024 x i8], ptr %buf, i64 0, i64 0
  %10 = load ptr, ptr %writer_arg.addr, align 8
  call void %9(ptr noundef %arraydecay8, ptr noundef %10)
  ret void
}

; Function Attrs: mustprogress uwtable
define dso_local void @_ZN4absl18debugging_internal32DumpPCAndFrameSizesAndStackTraceEPvPKS1_PiiibPFvPKcS1_ES1_(ptr noundef %pc, ptr noundef %stack, ptr noundef %frame_sizes, i32 noundef %depth, i32 noundef %min_dropped_frames, i1 noundef zeroext %symbolize_stacktrace, ptr noundef %writer, ptr noundef %writer_arg) #1 {
entry:
  %pc.addr = alloca ptr, align 8
  %stack.addr = alloca ptr, align 8
  %frame_sizes.addr = alloca ptr, align 8
  %depth.addr = alloca i32, align 4
  %min_dropped_frames.addr = alloca i32, align 4
  %symbolize_stacktrace.addr = alloca i8, align 1
  %writer.addr = alloca ptr, align 8
  %writer_arg.addr = alloca ptr, align 8
  %i = alloca i32, align 4
  %buf = alloca [100 x i8], align 16
  store ptr %pc, ptr %pc.addr, align 8
  store ptr %stack, ptr %stack.addr, align 8
  store ptr %frame_sizes, ptr %frame_sizes.addr, align 8
  store i32 %depth, ptr %depth.addr, align 4
  store i32 %min_dropped_frames, ptr %min_dropped_frames.addr, align 4
  %frombool = zext i1 %symbolize_stacktrace to i8
  store i8 %frombool, ptr %symbolize_stacktrace.addr, align 1
  store ptr %writer, ptr %writer.addr, align 8
  store ptr %writer_arg, ptr %writer_arg.addr, align 8
  %0 = load ptr, ptr %pc.addr, align 8
  %cmp = icmp ne ptr %0, null
  br i1 %cmp, label %if.then, label %if.end2

if.then:                                          ; preds = %entry
  %1 = load i8, ptr %symbolize_stacktrace.addr, align 1
  %tobool = trunc i8 %1 to i1
  br i1 %tobool, label %if.then1, label %if.else

if.then1:                                         ; preds = %if.then
  %2 = load ptr, ptr %writer.addr, align 8
  %3 = load ptr, ptr %writer_arg.addr, align 8
  %4 = load ptr, ptr %pc.addr, align 8
  %5 = load ptr, ptr %pc.addr, align 8
  call void @_ZN4absl18debugging_internal12_GLOBAL__N_127DumpPCAndFrameSizeAndSymbolEPFvPKcPvES4_S4_S4_iS3_(ptr noundef %2, ptr noundef %3, ptr noundef %4, ptr noundef %5, i32 noundef 0, ptr noundef @.str)
  br label %if.end

if.else:                                          ; preds = %if.then
  %6 = load ptr, ptr %writer.addr, align 8
  %7 = load ptr, ptr %writer_arg.addr, align 8
  %8 = load ptr, ptr %pc.addr, align 8
  call void @_ZN4absl18debugging_internal12_GLOBAL__N_118DumpPCAndFrameSizeEPFvPKcPvES4_S4_iS3_(ptr noundef %6, ptr noundef %7, ptr noundef %8, i32 noundef 0, ptr noundef @.str)
  br label %if.end

if.end:                                           ; preds = %if.else, %if.then1
  br label %if.end2

if.end2:                                          ; preds = %if.end, %entry
  store i32 0, ptr %i, align 4
  br label %for.cond

for.cond:                                         ; preds = %for.inc, %if.end2
  %9 = load i32, ptr %i, align 4
  %10 = load i32, ptr %depth.addr, align 4
  %cmp3 = icmp slt i32 %9, %10
  br i1 %cmp3, label %for.body, label %for.end

for.body:                                         ; preds = %for.cond
  %11 = load i8, ptr %symbolize_stacktrace.addr, align 1
  %tobool4 = trunc i8 %11 to i1
  br i1 %tobool4, label %if.then5, label %if.else10

if.then5:                                         ; preds = %for.body
  %12 = load ptr, ptr %writer.addr, align 8
  %13 = load ptr, ptr %writer_arg.addr, align 8
  %14 = load ptr, ptr %stack.addr, align 8
  %15 = load i32, ptr %i, align 4
  %idxprom = sext i32 %15 to i64
  %arrayidx = getelementptr inbounds ptr, ptr %14, i64 %idxprom
  %16 = load ptr, ptr %arrayidx, align 8
  %17 = load ptr, ptr %stack.addr, align 8
  %18 = load i32, ptr %i, align 4
  %idxprom6 = sext i32 %18 to i64
  %arrayidx7 = getelementptr inbounds ptr, ptr %17, i64 %idxprom6
  %19 = load ptr, ptr %arrayidx7, align 8
  %add.ptr = getelementptr inbounds i8, ptr %19, i64 -1
  %20 = load ptr, ptr %frame_sizes.addr, align 8
  %21 = load i32, ptr %i, align 4
  %idxprom8 = sext i32 %21 to i64
  %arrayidx9 = getelementptr inbounds i32, ptr %20, i64 %idxprom8
  %22 = load i32, ptr %arrayidx9, align 4
  call void @_ZN4absl18debugging_internal12_GLOBAL__N_127DumpPCAndFrameSizeAndSymbolEPFvPKcPvES4_S4_S4_iS3_(ptr noundef %12, ptr noundef %13, ptr noundef %16, ptr noundef %add.ptr, i32 noundef %22, ptr noundef @.str.1)
  br label %if.end15

if.else10:                                        ; preds = %for.body
  %23 = load ptr, ptr %writer.addr, align 8
  %24 = load ptr, ptr %writer_arg.addr, align 8
  %25 = load ptr, ptr %stack.addr, align 8
  %26 = load i32, ptr %i, align 4
  %idxprom11 = sext i32 %26 to i64
  %arrayidx12 = getelementptr inbounds ptr, ptr %25, i64 %idxprom11
  %27 = load ptr, ptr %arrayidx12, align 8
  %28 = load ptr, ptr %frame_sizes.addr, align 8
  %29 = load i32, ptr %i, align 4
  %idxprom13 = sext i32 %29 to i64
  %arrayidx14 = getelementptr inbounds i32, ptr %28, i64 %idxprom13
  %30 = load i32, ptr %arrayidx14, align 4
  call void @_ZN4absl18debugging_internal12_GLOBAL__N_118DumpPCAndFrameSizeEPFvPKcPvES4_S4_iS3_(ptr noundef %23, ptr noundef %24, ptr noundef %27, i32 noundef %30, ptr noundef @.str.1)
  br label %if.end15

if.end15:                                         ; preds = %if.else10, %if.then5
  br label %for.inc

for.inc:                                          ; preds = %if.end15
  %31 = load i32, ptr %i, align 4
  %inc = add nsw i32 %31, 1
  store i32 %inc, ptr %i, align 4
  br label %for.cond, !llvm.loop !5

for.end:                                          ; preds = %for.cond
  %32 = load i32, ptr %min_dropped_frames.addr, align 4
  %cmp16 = icmp sgt i32 %32, 0
  br i1 %cmp16, label %if.then17, label %if.end19

if.then17:                                        ; preds = %for.end
  %arraydecay = getelementptr inbounds [100 x i8], ptr %buf, i64 0, i64 0
  %33 = load i32, ptr %min_dropped_frames.addr, align 4
  %call = call i32 (ptr, i64, ptr, ...) @snprintf(ptr noundef %arraydecay, i64 noundef 100, ptr noundef @.str.2, i32 noundef %33) #4
  %34 = load ptr, ptr %writer.addr, align 8
  %arraydecay18 = getelementptr inbounds [100 x i8], ptr %buf, i64 0, i64 0
  %35 = load ptr, ptr %writer_arg.addr, align 8
  call void %34(ptr noundef %arraydecay18, ptr noundef %35)
  br label %if.end19

if.end19:                                         ; preds = %if.then17, %for.end
  ret void
}