; Function Attrs: mustprogress uwtable
define dso_local void @_ZN4absl18debugging_internal32DumpPCAndFrameSizesAndStackTraceEPvPKS1_PiiibPFvPKcS1_ES1_(ptr noundef %pc, ptr noundef readonly captures(none) %stack, ptr noundef readonly captures(none) %frame_sizes, i32 noundef %depth, i32 noundef %min_dropped_frames, i1 noundef zeroext %symbolize_stacktrace, ptr noundef readonly captures(none) %writer, ptr noundef %writer_arg) local_unnamed_addr #3 {
entry:
  %buf.i30 = alloca [100 x i8], align 16
  %tmp.i25 = alloca [1024 x i8], align 16
  %buf.i26 = alloca [1024 x i8], align 16
  %buf.i23 = alloca [100 x i8], align 16
  %tmp.i = alloca [1024 x i8], align 16
  %buf.i = alloca [1024 x i8], align 16
  %buf = alloca [100 x i8], align 16
  %cmp.not = icmp eq ptr %pc, null
  br i1 %cmp.not, label %if.end2, label %if.then

if.then:                                          ; preds = %entry
  br i1 %symbolize_stacktrace, label %if.end2.thread44, label %if.end2.thread

if.end2:                                          ; preds = %entry
  %cmp334 = icmp sgt i32 %depth, 0
  br i1 %cmp334, label %for.body.lr.ph, label %for.end

if.end2.thread44:                                 ; preds = %if.then
  call void @llvm.lifetime.start.p0(i64 1024, ptr nonnull %tmp.i)
  call void @llvm.lifetime.start.p0(i64 1024, ptr nonnull %buf.i)
  %call.i = call noundef zeroext i1 @_ZN4absl9SymbolizeEPKvPci(ptr noundef nonnull %pc, ptr noundef nonnull %tmp.i, i32 noundef 1024)
  %spec.select.i = select i1 %call.i, ptr %tmp.i, ptr @.str.3
  %call4.i = call i32 (ptr, i64, ptr, ...) @snprintf(ptr noundef nonnull dereferenceable(1) %buf.i, i64 noundef 1024, ptr noundef nonnull @.str.4, ptr noundef nonnull @.str, i32 noundef 18, ptr noundef nonnull %pc, ptr noundef nonnull %spec.select.i) #8
  call void %writer(ptr noundef nonnull %buf.i, ptr noundef %writer_arg)
  call void @llvm.lifetime.end.p0(i64 1024, ptr nonnull %tmp.i)
  call void @llvm.lifetime.end.p0(i64 1024, ptr nonnull %buf.i)
  %cmp33445 = icmp sgt i32 %depth, 0
  br i1 %cmp33445, label %for.body.us.preheader, label %for.end

if.end2.thread:                                   ; preds = %if.then
  call void @llvm.lifetime.start.p0(i64 100, ptr nonnull %buf.i23)
  %call.i24 = call i32 (ptr, i64, ptr, ...) @snprintf(ptr noundef nonnull dereferenceable(1) %buf.i23, i64 noundef 100, ptr noundef nonnull @.str.6, ptr noundef nonnull @.str, i32 noundef 18, ptr noundef nonnull %pc) #8
  call void %writer(ptr noundef nonnull %buf.i23, ptr noundef %writer_arg)
  call void @llvm.lifetime.end.p0(i64 100, ptr nonnull %buf.i23)
  %cmp33443 = icmp sgt i32 %depth, 0
  br i1 %cmp33443, label %for.body.preheader, label %for.end

for.body.lr.ph:                                   ; preds = %if.end2
  br i1 %symbolize_stacktrace, label %for.body.us.preheader, label %for.body.preheader

for.body.preheader:                               ; preds = %if.end2.thread, %for.body.lr.ph
  %wide.trip.count = zext nneg i32 %depth to i64
  br label %for.body

for.body.us.preheader:                            ; preds = %if.end2.thread44, %for.body.lr.ph
  %wide.trip.count41 = zext nneg i32 %depth to i64
  br label %for.body.us

for.body.us:                                      ; preds = %for.body.us.preheader, %_ZN4absl18debugging_internal12_GLOBAL__N_127DumpPCAndFrameSizeAndSymbolEPFvPKcPvES4_S4_S4_iS3_.exit.us
  %indvars.iv38 = phi i64 [ 0, %for.body.us.preheader ], [ %indvars.iv.next39, %_ZN4absl18debugging_internal12_GLOBAL__N_127DumpPCAndFrameSizeAndSymbolEPFvPKcPvES4_S4_S4_iS3_.exit.us ]
  %arrayidx.us = getelementptr inbounds nuw ptr, ptr %stack, i64 %indvars.iv38
  %0 = load ptr, ptr %arrayidx.us, align 8
  %add.ptr.us = getelementptr inbounds i8, ptr %0, i64 -1
  %arrayidx9.us = getelementptr inbounds nuw i32, ptr %frame_sizes, i64 %indvars.iv38
  %1 = load i32, ptr %arrayidx9.us, align 4
  call void @llvm.lifetime.start.p0(i64 1024, ptr nonnull %tmp.i25)
  call void @llvm.lifetime.start.p0(i64 1024, ptr nonnull %buf.i26)
  %call.i27.us = call noundef zeroext i1 @_ZN4absl9SymbolizeEPKvPci(ptr noundef nonnull %add.ptr.us, ptr noundef nonnull %tmp.i25, i32 noundef 1024)
  %spec.select.i28.us = select i1 %call.i27.us, ptr %tmp.i25, ptr @.str.3
  %cmp.i.us = icmp slt i32 %1, 1
  br i1 %cmp.i.us, label %if.then2.i.us, label %if.else.i.us

if.else.i.us:                                     ; preds = %for.body.us
  %call6.i.us = call i32 (ptr, i64, ptr, ...) @snprintf(ptr noundef nonnull dereferenceable(1) %buf.i26, i64 noundef 1024, ptr noundef nonnull @.str.5, ptr noundef nonnull @.str.1, i32 noundef 18, ptr noundef nonnull %0, i32 noundef %1, ptr noundef nonnull %spec.select.i28.us) #8
  br label %_ZN4absl18debugging_internal12_GLOBAL__N_127DumpPCAndFrameSizeAndSymbolEPFvPKcPvES4_S4_S4_iS3_.exit.us

if.then2.i.us:                                    ; preds = %for.body.us
  %call4.i29.us = call i32 (ptr, i64, ptr, ...) @snprintf(ptr noundef nonnull dereferenceable(1) %buf.i26, i64 noundef 1024, ptr noundef nonnull @.str.4, ptr noundef nonnull @.str.1, i32 noundef 18, ptr noundef nonnull %0, ptr noundef nonnull %spec.select.i28.us) #8
  br label %_ZN4absl18debugging_internal12_GLOBAL__N_127DumpPCAndFrameSizeAndSymbolEPFvPKcPvES4_S4_S4_iS3_.exit.us

_ZN4absl18debugging_internal12_GLOBAL__N_127DumpPCAndFrameSizeAndSymbolEPFvPKcPvES4_S4_S4_iS3_.exit.us: ; preds = %if.then2.i.us, %if.else.i.us
  call void %writer(ptr noundef nonnull %buf.i26, ptr noundef %writer_arg)
  call void @llvm.lifetime.end.p0(i64 1024, ptr nonnull %tmp.i25)
  call void @llvm.lifetime.end.p0(i64 1024, ptr nonnull %buf.i26)
  %indvars.iv.next39 = add nuw nsw i64 %indvars.iv38, 1
  %exitcond42.not = icmp eq i64 %indvars.iv.next39, %wide.trip.count41
  br i1 %exitcond42.not, label %for.end, label %for.body.us, !llvm.loop !5

for.body:                                         ; preds = %for.body.preheader, %_ZN4absl18debugging_internal12_GLOBAL__N_118DumpPCAndFrameSizeEPFvPKcPvES4_S4_iS3_.exit
  %indvars.iv = phi i64 [ 0, %for.body.preheader ], [ %indvars.iv.next, %_ZN4absl18debugging_internal12_GLOBAL__N_118DumpPCAndFrameSizeEPFvPKcPvES4_S4_iS3_.exit ]
  %arrayidx12 = getelementptr inbounds nuw ptr, ptr %stack, i64 %indvars.iv
  %2 = load ptr, ptr %arrayidx12, align 8
  %arrayidx14 = getelementptr inbounds nuw i32, ptr %frame_sizes, i64 %indvars.iv
  %3 = load i32, ptr %arrayidx14, align 4
  call void @llvm.lifetime.start.p0(i64 100, ptr nonnull %buf.i30)
  %cmp.i31 = icmp slt i32 %3, 1
  br i1 %cmp.i31, label %if.then.i, label %if.else.i32

if.then.i:                                        ; preds = %for.body
  %call.i33 = call i32 (ptr, i64, ptr, ...) @snprintf(ptr noundef nonnull dereferenceable(1) %buf.i30, i64 noundef 100, ptr noundef nonnull @.str.6, ptr noundef nonnull @.str.1, i32 noundef 18, ptr noundef %2) #8
  br label %_ZN4absl18debugging_internal12_GLOBAL__N_118DumpPCAndFrameSizeEPFvPKcPvES4_S4_iS3_.exit

if.else.i32:                                      ; preds = %for.body
  %call2.i = call i32 (ptr, i64, ptr, ...) @snprintf(ptr noundef nonnull dereferenceable(1) %buf.i30, i64 noundef 100, ptr noundef nonnull @.str.7, ptr noundef nonnull @.str.1, i32 noundef 18, ptr noundef %2, i32 noundef %3) #8
  br label %_ZN4absl18debugging_internal12_GLOBAL__N_118DumpPCAndFrameSizeEPFvPKcPvES4_S4_iS3_.exit

_ZN4absl18debugging_internal12_GLOBAL__N_118DumpPCAndFrameSizeEPFvPKcPvES4_S4_iS3_.exit: ; preds = %if.then.i, %if.else.i32
  call void %writer(ptr noundef nonnull %buf.i30, ptr noundef %writer_arg)
  call void @llvm.lifetime.end.p0(i64 100, ptr nonnull %buf.i30)
  %indvars.iv.next = add nuw nsw i64 %indvars.iv, 1
  %exitcond.not = icmp eq i64 %indvars.iv.next, %wide.trip.count
  br i1 %exitcond.not, label %for.end, label %for.body, !llvm.loop !5

for.end:                                          ; preds = %_ZN4absl18debugging_internal12_GLOBAL__N_118DumpPCAndFrameSizeEPFvPKcPvES4_S4_iS3_.exit, %_ZN4absl18debugging_internal12_GLOBAL__N_127DumpPCAndFrameSizeAndSymbolEPFvPKcPvES4_S4_S4_iS3_.exit.us, %if.end2.thread44, %if.end2.thread, %if.end2
  %cmp16 = icmp sgt i32 %min_dropped_frames, 0
  br i1 %cmp16, label %if.then17, label %if.end19

if.then17:                                        ; preds = %for.end
  %call = call i32 (ptr, i64, ptr, ...) @snprintf(ptr noundef nonnull dereferenceable(1) %buf, i64 noundef 100, ptr noundef nonnull @.str.2, i32 noundef %min_dropped_frames) #8
  call void %writer(ptr noundef nonnull %buf, ptr noundef %writer_arg)
  br label %if.end19

if.end19:                                         ; preds = %if.then17, %for.end
  ret void
}